target datalayout = "e-m:e-p270:32:32-p271:32:32-p272:64:64-i64:64-i128:128-f80:128-n8:16:32:64-S128"
target triple = "x86_64-unknown-linux-gnu"

; Function Attrs: nounwind uwtable
define i32 @wc_ecc_rs_raw_to_sig(ptr noundef %r, i32 noundef %rSz, ptr noundef %s, i32 noundef %sSz, ptr noundef %out, ptr noundef %outlen) #0 {
entry:
  %retval = alloca i32, align 4
  %r.addr = alloca ptr, align 8
  %rSz.addr = alloca i32, align 4
  %s.addr = alloca ptr, align 8
  %sSz.addr = alloca i32, align 4
  %out.addr = alloca ptr, align 8
  %outlen.addr = alloca ptr, align 8
  store ptr %r, ptr %r.addr, align 8
  store i32 %rSz, ptr %rSz.addr, align 4
  store ptr %s, ptr %s.addr, align 8
  store i32 %sSz, ptr %sSz.addr, align 4
  store ptr %out, ptr %out.addr, align 8
  store ptr %outlen, ptr %outlen.addr, align 8
  %0 = load ptr, ptr %r.addr, align 8
  %cmp = icmp eq ptr %0, null
  br i1 %cmp, label %if.then, label %lor.lhs.false

lor.lhs.false:                                    ; preds = %entry
  %1 = load ptr, ptr %s.addr, align 8
  %cmp1 = icmp eq ptr %1, null
  br i1 %cmp1, label %if.then, label %lor.lhs.false2

lor.lhs.false2:                                   ; preds = %lor.lhs.false
  %2 = load ptr, ptr %out.addr, align 8
  %cmp3 = icmp eq ptr %2, null
  br i1 %cmp3, label %if.then, label %lor.lhs.false4

lor.lhs.false4:                                   ; preds = %lor.lhs.false2
  %3 = load ptr, ptr %outlen.addr, align 8
  %cmp5 = icmp eq ptr %3, null
  br i1 %cmp5, label %if.then, label %if.end

if.then:                                          ; preds = %lor.lhs.false4, %lor.lhs.false2, %lor.lhs.false, %entry
  store i32 -170, ptr %retval, align 4
  br label %return

if.end:                                           ; preds = %lor.lhs.false4
  %4 = load ptr, ptr %out.addr, align 8
  %5 = load ptr, ptr %outlen.addr, align 8
  %6 = load ptr, ptr %r.addr, align 8
  %7 = load i32, ptr %rSz.addr, align 4
  %8 = load ptr, ptr %s.addr, align 8
  %9 = load i32, ptr %sSz.addr, align 4
  %call = call i32 @StoreECC_DSA_Sig_Bin(ptr noundef %4, ptr noundef %5, ptr noundef %6, i32 noundef %7, ptr noundef %8, i32 noundef %9)
  store i32 %call, ptr %retval, align 4
  br label %return

return:                                           ; preds = %if.end, %if.then
  %10 = load i32, ptr %retval, align 4
  ret i32 %10
}