; Function Attrs: nounwind uwtable
define i32 @wc_ecc_rs_raw_to_sig(ptr noundef %r, i32 noundef %rSz, ptr noundef %s, i32 noundef %sSz, ptr noundef %out, ptr noundef %outlen) local_unnamed_addr #2 {
entry:
  %cmp = icmp eq ptr %r, null
  %cmp1 = icmp eq ptr %s, null
  %or.cond = or i1 %cmp, %cmp1
  %cmp3 = icmp eq ptr %out, null
  %or.cond1 = or i1 %or.cond, %cmp3
  %cmp5 = icmp eq ptr %outlen, null
  %or.cond2 = or i1 %or.cond1, %cmp5
  br i1 %or.cond2, label %return, label %if.end

if.end:                                           ; preds = %entry
  %call = tail call i32 @StoreECC_DSA_Sig_Bin(ptr noundef nonnull %out, ptr noundef nonnull %outlen, ptr noundef nonnull %r, i32 noundef %rSz, ptr noundef nonnull %s, i32 noundef %sSz) #19
  br label %return

return:                                           ; preds = %entry, %if.end
  %retval.0 = phi i32 [ %call, %if.end ], [ -170, %entry ]
  ret i32 %retval.0
}